target datalayout = "e-m:e-p270:32:32-p271:32:32-p272:64:64-i64:64-i128:128-f80:128-n8:16:32:64-S128"
target triple = "x86_64-pc-linux-gnu"

%struct.summary_ctx = type { ptr, i32, ptr, ptr, i64, i32, i32, i16, i32, ptr, i32 }
%struct.cl_fmap = type { ptr, ptr, ptr, i64, i64, i64, i64, i8, i8, i8, i64, i64, i64, i64, ptr, ptr, ptr, ptr, ptr, ptr, ptr, i8, [16 x i8], i8, [20 x i8], i8, [32 x i8], ptr, ptr }

@.str.15 = private unnamed_addr constant [42 x i8] c"in cli_ole2_summary_json_cleanup: %d[%x]\0A\00", align 1
@.str.16 = private unnamed_addr constant [12 x i8] c"ParseErrors\00", align 1
@.str.17 = private unnamed_addr constant [28 x i8] c"OLE2_SUMMARY_ERROR_TOOSMALL\00", align 1
@.str.18 = private unnamed_addr constant [23 x i8] c"OLE2_SUMMARY_ERROR_OOB\00", align 1
@.str.19 = private unnamed_addr constant [27 x i8] c"OLE2_SUMMARY_ERROR_DATABUF\00", align 1
@.str.20 = private unnamed_addr constant [33 x i8] c"OLE2_SUMMARY_ERROR_INVALID_ENTRY\00", align 1
@.str.21 = private unnamed_addr constant [25 x i8] c"OLE2_SUMMARY_LIMIT_PROPS\00", align 1
@.str.22 = private unnamed_addr constant [26 x i8] c"OLE2_SUMMARY_FLAG_TIMEOUT\00", align 1
@.str.23 = private unnamed_addr constant [27 x i8] c"OLE2_SUMMARY_FLAG_CODEPAGE\00", align 1
@.str.24 = private unnamed_addr constant [33 x i8] c"OLE2_SUMMARY_FLAG_UNKNOWN_PROPID\00", align 1
@.str.25 = private unnamed_addr constant [37 x i8] c"OLE2_SUMMARY_FLAG_UNHANDLED_PROPTYPE\00", align 1
@.str.26 = private unnamed_addr constant [28 x i8] c"OLE2_SUMMARY_FLAG_TRUNC_STR\00", align 1
@.str.27 = private unnamed_addr constant [29 x i8] c"OLE2_CODEPAGE_ERROR_NOTFOUND\00", align 1
@.str.28 = private unnamed_addr constant [29 x i8] c"OLE2_CODEPAGE_ERROR_UNINITED\00", align 1
@.str.29 = private unnamed_addr constant [28 x i8] c"OLE2_CODEPAGE_ERROR_INVALID\00", align 1
@.str.30 = private unnamed_addr constant [31 x i8] c"OLE2_CODEPAGE_ERROR_INCOMPLETE\00", align 1
@.str.31 = private unnamed_addr constant [35 x i8] c"OLE2_CODEPAGE_ERROR_OUTBUFTOOSMALL\00", align 1

; Function Attrs: nounwind uwtable
define internal void @funmap(ptr noundef %0) #0 {
  %2 = alloca ptr, align 8
  store ptr %0, ptr %2, align 8
  %3 = load ptr, ptr %2, align 8
  %4 = getelementptr inbounds %struct.cl_fmap, ptr %3, i32 0, i32 14
  %5 = load ptr, ptr %4, align 8
  %6 = load ptr, ptr %2, align 8
  call void %5(ptr noundef %6)
  ret void
}

; Function Attrs: nounwind uwtable
define internal i32 @cli_ole2_summary_json_cleanup(ptr noundef %0, i32 noundef %1) #0 {
  %3 = alloca ptr, align 8
  %4 = alloca i32, align 4
  %5 = alloca ptr, align 8
  store ptr %0, ptr %3, align 8
  store i32 %1, ptr %4, align 4
  %6 = load i32, ptr %4, align 4
  %7 = load ptr, ptr %3, align 8
  %8 = getelementptr inbounds %struct.summary_ctx, ptr %7, i32 0, i32 5
  %9 = load i32, ptr %8, align 8
  call void (ptr, ...) @cli_dbgmsg(ptr noundef @.str.15, i32 noundef %6, i32 noundef %9)
  %10 = load ptr, ptr %3, align 8
  %11 = getelementptr inbounds %struct.summary_ctx, ptr %10, i32 0, i32 2
  %12 = load ptr, ptr %11, align 8
  %13 = icmp ne ptr %12, null
  br i1 %13, label %14, label %18

14:                                               ; preds = %2
  %15 = load ptr, ptr %3, align 8
  %16 = getelementptr inbounds %struct.summary_ctx, ptr %15, i32 0, i32 2
  %17 = load ptr, ptr %16, align 8
  call void @funmap(ptr noundef %17)
  br label %18

18:                                               ; preds = %14, %2
  %19 = load ptr, ptr %3, align 8
  %20 = getelementptr inbounds %struct.summary_ctx, ptr %19, i32 0, i32 5
  %21 = load i32, ptr %20, align 8
  %22 = icmp ne i32 %21, 0
  br i1 %22, label %23, label %163

23:                                               ; preds = %18
  %24 = load ptr, ptr %3, align 8
  %25 = getelementptr inbounds %struct.summary_ctx, ptr %24, i32 0, i32 3
  %26 = load ptr, ptr %25, align 8
  %27 = call ptr @cli_jsonarray(ptr noundef %26, ptr noundef @.str.16)
  store ptr %27, ptr %5, align 8
  %28 = load ptr, ptr %3, align 8
  %29 = getelementptr inbounds %struct.summary_ctx, ptr %28, i32 0, i32 5
  %30 = load i32, ptr %29, align 8
  %31 = and i32 %30, 1
  %32 = icmp ne i32 %31, 0
  br i1 %32, label %33, label %36

33:                                               ; preds = %23
  %34 = load ptr, ptr %5, align 8
  %35 = call i32 @cli_jsonstr(ptr noundef %34, ptr noundef null, ptr noundef @.str.17)
  br label %36

36:                                               ; preds = %33, %23
  %37 = load ptr, ptr %3, align 8
  %38 = getelementptr inbounds %struct.summary_ctx, ptr %37, i32 0, i32 5
  %39 = load i32, ptr %38, align 8
  %40 = and i32 %39, 2
  %41 = icmp ne i32 %40, 0
  br i1 %41, label %42, label %45

42:                                               ; preds = %36
  %43 = load ptr, ptr %5, align 8
  %44 = call i32 @cli_jsonstr(ptr noundef %43, ptr noundef null, ptr noundef @.str.18)
  br label %45

45:                                               ; preds = %42, %36
  %46 = load ptr, ptr %3, align 8
  %47 = getelementptr inbounds %struct.summary_ctx, ptr %46, i32 0, i32 5
  %48 = load i32, ptr %47, align 8
  %49 = and i32 %48, 4
  %50 = icmp ne i32 %49, 0
  br i1 %50, label %51, label %54

51:                                               ; preds = %45
  %52 = load ptr, ptr %5, align 8
  %53 = call i32 @cli_jsonstr(ptr noundef %52, ptr noundef null, ptr noundef @.str.19)
  br label %54

54:                                               ; preds = %51, %45
  %55 = load ptr, ptr %3, align 8
  %56 = getelementptr inbounds %struct.summary_ctx, ptr %55, i32 0, i32 5
  %57 = load i32, ptr %56, align 8
  %58 = and i32 %57, 8
  %59 = icmp ne i32 %58, 0
  br i1 %59, label %60, label %63

60:                                               ; preds = %54
  %61 = load ptr, ptr %5, align 8
  %62 = call i32 @cli_jsonstr(ptr noundef %61, ptr noundef null, ptr noundef @.str.20)
  br label %63

63:                                               ; preds = %60, %54
  %64 = load ptr, ptr %3, align 8
  %65 = getelementptr inbounds %struct.summary_ctx, ptr %64, i32 0, i32 5
  %66 = load i32, ptr %65, align 8
  %67 = and i32 %66, 16
  %68 = icmp ne i32 %67, 0
  br i1 %68, label %69, label %72

69:                                               ; preds = %63
  %70 = load ptr, ptr %5, align 8
  %71 = call i32 @cli_jsonstr(ptr noundef %70, ptr noundef null, ptr noundef @.str.21)
  br label %72

72:                                               ; preds = %69, %63
  %73 = load ptr, ptr %3, align 8
  %74 = getelementptr inbounds %struct.summary_ctx, ptr %73, i32 0, i32 5
  %75 = load i32, ptr %74, align 8
  %76 = and i32 %75, 32
  %77 = icmp ne i32 %76, 0
  br i1 %77, label %78, label %81

78:                                               ; preds = %72
  %79 = load ptr, ptr %5, align 8
  %80 = call i32 @cli_jsonstr(ptr noundef %79, ptr noundef null, ptr noundef @.str.22)
  br label %81

81:                                               ; preds = %78, %72
  %82 = load ptr, ptr %3, align 8
  %83 = getelementptr inbounds %struct.summary_ctx, ptr %82, i32 0, i32 5
  %84 = load i32, ptr %83, align 8
  %85 = and i32 %84, 64
  %86 = icmp ne i32 %85, 0
  br i1 %86, label %87, label %90

87:                                               ; preds = %81
  %88 = load ptr, ptr %5, align 8
  %89 = call i32 @cli_jsonstr(ptr noundef %88, ptr noundef null, ptr noundef @.str.23)
  br label %90

90:                                               ; preds = %87, %81
  %91 = load ptr, ptr %3, align 8
  %92 = getelementptr inbounds %struct.summary_ctx, ptr %91, i32 0, i32 5
  %93 = load i32, ptr %92, align 8
  %94 = and i32 %93, 128
  %95 = icmp ne i32 %94, 0
  br i1 %95, label %96, label %99

96:                                               ; preds = %90
  %97 = load ptr, ptr %5, align 8
  %98 = call i32 @cli_jsonstr(ptr noundef %97, ptr noundef null, ptr noundef @.str.24)
  br label %99

99:                                               ; preds = %96, %90
  %100 = load ptr, ptr %3, align 8
  %101 = getelementptr inbounds %struct.summary_ctx, ptr %100, i32 0, i32 5
  %102 = load i32, ptr %101, align 8
  %103 = and i32 %102, 256
  %104 = icmp ne i32 %103, 0
  br i1 %104, label %105, label %108

105:                                              ; preds = %99
  %106 = load ptr, ptr %5, align 8
  %107 = call i32 @cli_jsonstr(ptr noundef %106, ptr noundef null, ptr noundef @.str.25)
  br label %108

108:                                              ; preds = %105, %99
  %109 = load ptr, ptr %3, align 8
  %110 = getelementptr inbounds %struct.summary_ctx, ptr %109, i32 0, i32 5
  %111 = load i32, ptr %110, align 8
  %112 = and i32 %111, 512
  %113 = icmp ne i32 %112, 0
  br i1 %113, label %114, label %117

114:                                              ; preds = %108
  %115 = load ptr, ptr %5, align 8
  %116 = call i32 @cli_jsonstr(ptr noundef %115, ptr noundef null, ptr noundef @.str.26)
  br label %117

117:                                              ; preds = %114, %108
  %118 = load ptr, ptr %3, align 8
  %119 = getelementptr inbounds %struct.summary_ctx, ptr %118, i32 0, i32 5
  %120 = load i32, ptr %119, align 8
  %121 = and i32 %120, 1024
  %122 = icmp ne i32 %121, 0
  br i1 %122, label %123, label %126

123:                                              ; preds = %117
  %124 = load ptr, ptr %5, align 8
  %125 = call i32 @cli_jsonstr(ptr noundef %124, ptr noundef null, ptr noundef @.str.27)
  br label %126

126:                                              ; preds = %123, %117
  %127 = load ptr, ptr %3, align 8
  %128 = getelementptr inbounds %struct.summary_ctx, ptr %127, i32 0, i32 5
  %129 = load i32, ptr %128, align 8
  %130 = and i32 %129, 2048
  %131 = icmp ne i32 %130, 0
  br i1 %131, label %132, label %135

132:                                              ; preds = %126
  %133 = load ptr, ptr %5, align 8
  %134 = call i32 @cli_jsonstr(ptr noundef %133, ptr noundef null, ptr noundef @.str.28)
  br label %135

135:                                              ; preds = %132, %126
  %136 = load ptr, ptr %3, align 8
  %137 = getelementptr inbounds %struct.summary_ctx, ptr %136, i32 0, i32 5
  %138 = load i32, ptr %137, align 8
  %139 = and i32 %138, 4096
  %140 = icmp ne i32 %139, 0
  br i1 %140, label %141, label %144

141:                                              ; preds = %135
  %142 = load ptr, ptr %5, align 8
  %143 = call i32 @cli_jsonstr(ptr noundef %142, ptr noundef null, ptr noundef @.str.29)
  br label %144

144:                                              ; preds = %141, %135
  %145 = load ptr, ptr %3, align 8
  %146 = getelementptr inbounds %struct.summary_ctx, ptr %145, i32 0, i32 5
  %147 = load i32, ptr %146, align 8
  %148 = and i32 %147, 8192
  %149 = icmp ne i32 %148, 0
  br i1 %149, label %150, label %153

150:                                              ; preds = %144
  %151 = load ptr, ptr %5, align 8
  %152 = call i32 @cli_jsonstr(ptr noundef %151, ptr noundef null, ptr noundef @.str.30)
  br label %153

153:                                              ; preds = %150, %144
  %154 = load ptr, ptr %3, align 8
  %155 = getelementptr inbounds %struct.summary_ctx, ptr %154, i32 0, i32 5
  %156 = load i32, ptr %155, align 8
  %157 = and i32 %156, 8192
  %158 = icmp ne i32 %157, 0
  br i1 %158, label %159, label %162

159:                                              ; preds = %153
  %160 = load ptr, ptr %5, align 8
  %161 = call i32 @cli_jsonstr(ptr noundef %160, ptr noundef null, ptr noundef @.str.31)
  br label %162

162:                                              ; preds = %159, %153
  br label %163

163:                                              ; preds = %162, %18
  %164 = load i32, ptr %4, align 4
  ret i32 %164
}