; Function Attrs: nounwind uwtable
define internal fastcc noundef i32 @cli_ole2_summary_json_cleanup(ptr nocapture noundef readonly %0, i32 noundef returned %1) unnamed_addr #0 {
  %3 = getelementptr inbounds i8, ptr %0, i64 40
  %4 = load i32, ptr %3, align 8
  tail call void (ptr, ...) @cli_dbgmsg(ptr noundef nonnull @.str.15, i32 noundef %1, i32 noundef %4) #10
  %5 = getelementptr inbounds i8, ptr %0, i64 16
  %6 = load ptr, ptr %5, align 8
  %.not = icmp eq ptr %6, null
  br i1 %.not, label %10, label %7

7:                                                ; preds = %2
  %8 = getelementptr inbounds i8, ptr %6, i64 96
  %9 = load ptr, ptr %8, align 8
  tail call void %9(ptr noundef nonnull %6) #10
  br label %10

10:                                               ; preds = %7, %2
  %11 = load i32, ptr %3, align 8
  %.not36 = icmp eq i32 %11, 0
  br i1 %.not36, label %.thread, label %12

12:                                               ; preds = %10
  %13 = getelementptr inbounds i8, ptr %0, i64 24
  %14 = load ptr, ptr %13, align 8
  %15 = tail call ptr @cli_jsonarray(ptr noundef %14, ptr noundef nonnull @.str.16) #10
  %16 = load i32, ptr %3, align 8
  %17 = and i32 %16, 1
  %.not37 = icmp eq i32 %17, 0
  br i1 %.not37, label %20, label %18

18:                                               ; preds = %12
  %19 = tail call i32 @cli_jsonstr(ptr noundef %15, ptr noundef null, ptr noundef nonnull @.str.17) #10
  %.pre = load i32, ptr %3, align 8
  br label %20

20:                                               ; preds = %18, %12
  %21 = phi i32 [ %.pre, %18 ], [ %16, %12 ]
  %22 = and i32 %21, 2
  %.not38 = icmp eq i32 %22, 0
  br i1 %.not38, label %25, label %23

23:                                               ; preds = %20
  %24 = tail call i32 @cli_jsonstr(ptr noundef %15, ptr noundef null, ptr noundef nonnull @.str.18) #10
  %.pre52 = load i32, ptr %3, align 8
  br label %25

25:                                               ; preds = %23, %20
  %26 = phi i32 [ %.pre52, %23 ], [ %21, %20 ]
  %27 = and i32 %26, 4
  %.not39 = icmp eq i32 %27, 0
  br i1 %.not39, label %30, label %28

28:                                               ; preds = %25
  %29 = tail call i32 @cli_jsonstr(ptr noundef %15, ptr noundef null, ptr noundef nonnull @.str.19) #10
  %.pre53 = load i32, ptr %3, align 8
  br label %30

30:                                               ; preds = %28, %25
  %31 = phi i32 [ %.pre53, %28 ], [ %26, %25 ]
  %32 = and i32 %31, 8
  %.not40 = icmp eq i32 %32, 0
  br i1 %.not40, label %35, label %33

33:                                               ; preds = %30
  %34 = tail call i32 @cli_jsonstr(ptr noundef %15, ptr noundef null, ptr noundef nonnull @.str.20) #10
  %.pre54 = load i32, ptr %3, align 8
  br label %35

35:                                               ; preds = %33, %30
  %36 = phi i32 [ %.pre54, %33 ], [ %31, %30 ]
  %37 = and i32 %36, 16
  %.not41 = icmp eq i32 %37, 0
  br i1 %.not41, label %40, label %38

38:                                               ; preds = %35
  %39 = tail call i32 @cli_jsonstr(ptr noundef %15, ptr noundef null, ptr noundef nonnull @.str.21) #10
  %.pre55 = load i32, ptr %3, align 8
  br label %40

40:                                               ; preds = %38, %35
  %41 = phi i32 [ %.pre55, %38 ], [ %36, %35 ]
  %42 = and i32 %41, 32
  %.not42 = icmp eq i32 %42, 0
  br i1 %.not42, label %45, label %43

43:                                               ; preds = %40
  %44 = tail call i32 @cli_jsonstr(ptr noundef %15, ptr noundef null, ptr noundef nonnull @.str.22) #10
  %.pre56 = load i32, ptr %3, align 8
  br label %45

45:                                               ; preds = %43, %40
  %46 = phi i32 [ %.pre56, %43 ], [ %41, %40 ]
  %47 = and i32 %46, 64
  %.not43 = icmp eq i32 %47, 0
  br i1 %.not43, label %50, label %48

48:                                               ; preds = %45
  %49 = tail call i32 @cli_jsonstr(ptr noundef %15, ptr noundef null, ptr noundef nonnull @.str.23) #10
  %.pre57 = load i32, ptr %3, align 8
  br label %50

50:                                               ; preds = %48, %45
  %51 = phi i32 [ %.pre57, %48 ], [ %46, %45 ]
  %52 = and i32 %51, 128
  %.not44 = icmp eq i32 %52, 0
  br i1 %.not44, label %55, label %53

53:                                               ; preds = %50
  %54 = tail call i32 @cli_jsonstr(ptr noundef %15, ptr noundef null, ptr noundef nonnull @.str.24) #10
  %.pre58 = load i32, ptr %3, align 8
  br label %55

55:                                               ; preds = %53, %50
  %56 = phi i32 [ %.pre58, %53 ], [ %51, %50 ]
  %57 = and i32 %56, 256
  %.not45 = icmp eq i32 %57, 0
  br i1 %.not45, label %60, label %58

58:                                               ; preds = %55
  %59 = tail call i32 @cli_jsonstr(ptr noundef %15, ptr noundef null, ptr noundef nonnull @.str.25) #10
  %.pre59 = load i32, ptr %3, align 8
  br label %60

60:                                               ; preds = %58, %55
  %61 = phi i32 [ %.pre59, %58 ], [ %56, %55 ]
  %62 = and i32 %61, 512
  %.not46 = icmp eq i32 %62, 0
  br i1 %.not46, label %65, label %63

63:                                               ; preds = %60
  %64 = tail call i32 @cli_jsonstr(ptr noundef %15, ptr noundef null, ptr noundef nonnull @.str.26) #10
  %.pre60 = load i32, ptr %3, align 8
  br label %65

65:                                               ; preds = %63, %60
  %66 = phi i32 [ %.pre60, %63 ], [ %61, %60 ]
  %67 = and i32 %66, 1024
  %.not47 = icmp eq i32 %67, 0
  br i1 %.not47, label %70, label %68

68:                                               ; preds = %65
  %69 = tail call i32 @cli_jsonstr(ptr noundef %15, ptr noundef null, ptr noundef nonnull @.str.27) #10
  %.pre61 = load i32, ptr %3, align 8
  br label %70

70:                                               ; preds = %68, %65
  %71 = phi i32 [ %.pre61, %68 ], [ %66, %65 ]
  %72 = and i32 %71, 2048
  %.not48 = icmp eq i32 %72, 0
  br i1 %.not48, label %75, label %73

73:                                               ; preds = %70
  %74 = tail call i32 @cli_jsonstr(ptr noundef %15, ptr noundef null, ptr noundef nonnull @.str.28) #10
  %.pre62 = load i32, ptr %3, align 8
  br label %75

75:                                               ; preds = %73, %70
  %76 = phi i32 [ %.pre62, %73 ], [ %71, %70 ]
  %77 = and i32 %76, 4096
  %.not49 = icmp eq i32 %77, 0
  br i1 %.not49, label %80, label %78

78:                                               ; preds = %75
  %79 = tail call i32 @cli_jsonstr(ptr noundef %15, ptr noundef null, ptr noundef nonnull @.str.29) #10
  %.pre63 = load i32, ptr %3, align 8
  br label %80

80:                                               ; preds = %78, %75
  %81 = phi i32 [ %.pre63, %78 ], [ %76, %75 ]
  %82 = and i32 %81, 8192
  %.not50 = icmp eq i32 %82, 0
  br i1 %.not50, label %.thread, label %83

83:                                               ; preds = %80
  %84 = tail call i32 @cli_jsonstr(ptr noundef %15, ptr noundef null, ptr noundef nonnull @.str.30) #10
  %.pre64 = load i32, ptr %3, align 8
  %.pre65 = and i32 %.pre64, 8192
  %85 = icmp eq i32 %.pre65, 0
  br i1 %85, label %.thread, label %86

86:                                               ; preds = %83
  %87 = tail call i32 @cli_jsonstr(ptr noundef %15, ptr noundef null, ptr noundef nonnull @.str.31) #10
  br label %.thread

.thread:                                          ; preds = %80, %83, %86, %10
  ret i32 %1
}